target datalayout = "e-m:e-p270:32:32-p271:32:32-p272:64:64-i64:64-i128:128-f80:128-n8:16:32:64-S128"
target triple = "x86_64-unknown-linux-gnu"

%"class.icu_75::UMutex" = type { [40 x i8], %"struct.std::atomic", ptr }
%"struct.std::atomic" = type { %"struct.std::__atomic_base" }
%"struct.std::__atomic_base" = type { ptr }
%"class.icu_75::UObject" = type { ptr }
%"class.icu_75::TextTrieMap" = type { ptr, i8, ptr, i32, i32, ptr, i8, ptr }
%"class.icu_75::Mutex" = type { ptr }
%"class.icu_75::ZNameSearchHandler" = type { %"class.icu_75::TextTrieMapSearchResultHandler", i32, i32, ptr }
%"class.icu_75::TextTrieMapSearchResultHandler" = type { ptr }
%"class.icu_75::TimeZoneNamesImpl" = type { %"class.icu_75::TimeZoneNames", %"class.icu_75::Locale", ptr, ptr, ptr, i8, i8, %"class.icu_75::TextTrieMap" }
%"class.icu_75::TimeZoneNames" = type { %"class.icu_75::UObject" }
%"class.icu_75::Locale" = type <{ %"class.icu_75::UObject", [12 x i8], [6 x i8], [4 x i8], [2 x i8], i32, [4 x i8], ptr, [157 x i8], [3 x i8], ptr, i8, [7 x i8] }>

@_ZN6icu_75L10gDataMutexE = internal global %"class.icu_75::UMutex" zeroinitializer, align 8
@_ZN6icu_7518ZNameSearchHandlerC1Ej = unnamed_addr alias void (ptr, i32), ptr @_ZN6icu_7518ZNameSearchHandlerC2Ej
@_ZN6icu_7518ZNameSearchHandlerD1Ev = unnamed_addr alias void (ptr), ptr @_ZN6icu_7518ZNameSearchHandlerD2Ev

; Function Attrs: mustprogress nounwind uwtable
define linkonce_odr void @_ZN6icu_755MutexD2Ev(ptr noundef nonnull align 8 dereferenceable(8) %this) unnamed_addr #0 comdat align 2 personality ptr @__gxx_personality_v0 {
entry:
  %this.addr = alloca ptr, align 8
  store ptr %this, ptr %this.addr, align 8
  %this1 = load ptr, ptr %this.addr, align 8
  %fMutex = getelementptr inbounds %"class.icu_75::Mutex", ptr %this1, i32 0, i32 0
  %0 = load ptr, ptr %fMutex, align 8
  invoke void @umtx_unlock_75(ptr noundef %0)
          to label %invoke.cont unwind label %terminate.lpad

invoke.cont:                                      ; preds = %entry
  ret void

terminate.lpad:                                   ; preds = %entry
  %1 = landingpad { ptr, i32 }
          catch ptr null
  %2 = extractvalue { ptr, i32 } %1, 0
  call void @__clang_call_terminate(ptr %2) #12
  unreachable
}

; Function Attrs: mustprogress nounwind uwtable
define internal noundef signext i8 @_ZL9U_FAILURE10UErrorCode(i32 noundef %code) #0 {
entry:
  %code.addr = alloca i32, align 4
  store i32 %code, ptr %code.addr, align 4
  %0 = load i32, ptr %code.addr, align 4
  %cmp = icmp sgt i32 %0, 0
  %conv = zext i1 %cmp to i8
  ret i8 %conv
}

; Function Attrs: mustprogress uwtable
define linkonce_odr void @_ZN6icu_755MutexC2EPNS_6UMutexE(ptr noundef nonnull align 8 dereferenceable(8) %this, ptr noundef %mutex) unnamed_addr #1 comdat align 2 {
entry:
  %this.addr = alloca ptr, align 8
  %mutex.addr = alloca ptr, align 8
  store ptr %this, ptr %this.addr, align 8
  store ptr %mutex, ptr %mutex.addr, align 8
  %this1 = load ptr, ptr %this.addr, align 8
  %fMutex = getelementptr inbounds %"class.icu_75::Mutex", ptr %this1, i32 0, i32 0
  %0 = load ptr, ptr %mutex.addr, align 8
  store ptr %0, ptr %fMutex, align 8
  %fMutex2 = getelementptr inbounds %"class.icu_75::Mutex", ptr %this1, i32 0, i32 0
  %1 = load ptr, ptr %fMutex2, align 8
  call void @umtx_lock_75(ptr noundef %1)
  ret void
}

; Function Attrs: mustprogress uwtable
define noundef ptr @_ZNK6icu_7517TimeZoneNamesImpl4findERKNS_13UnicodeStringEijR10UErrorCode(ptr noundef nonnull align 8 dereferenceable(320) %this, ptr noundef nonnull align 8 dereferenceable(64) %text, i32 noundef %start, i32 noundef %types, ptr noundef nonnull align 4 dereferenceable(4) %status) unnamed_addr #1 align 2 personality ptr @__gxx_personality_v0 {
entry:
  %retval = alloca ptr, align 8
  %this.addr = alloca ptr, align 8
  %text.addr = alloca ptr, align 8
  %start.addr = alloca i32, align 4
  %types.addr = alloca i32, align 4
  %status.addr = alloca ptr, align 8
  %handler = alloca %"class.icu_75::ZNameSearchHandler", align 8
  %matches = alloca ptr, align 8
  %nonConstThis = alloca ptr, align 8
  %lock = alloca %"class.icu_75::Mutex", align 8
  %exn.slot = alloca ptr, align 8
  %ehselector.slot = alloca i32, align 4
  %cleanup.dest.slot = alloca i32, align 4
  store ptr %this, ptr %this.addr, align 8
  store ptr %text, ptr %text.addr, align 8
  store i32 %start, ptr %start.addr, align 4
  store i32 %types, ptr %types.addr, align 4
  store ptr %status, ptr %status.addr, align 8
  %this1 = load ptr, ptr %this.addr, align 8
  %0 = load i32, ptr %types.addr, align 4
  call void @_ZN6icu_7518ZNameSearchHandlerC1Ej(ptr noundef nonnull align 8 dereferenceable(24) %handler, i32 noundef %0)
  store ptr %this1, ptr %nonConstThis, align 8
  invoke void @_ZN6icu_755MutexC2EPNS_6UMutexE(ptr noundef nonnull align 8 dereferenceable(8) %lock, ptr noundef @_ZN6icu_75L10gDataMutexE)
          to label %invoke.cont unwind label %lpad

invoke.cont:                                      ; preds = %entry
  %1 = load ptr, ptr %text.addr, align 8
  %2 = load i32, ptr %start.addr, align 4
  %3 = load ptr, ptr %status.addr, align 8
  %call = invoke noundef ptr @_ZNK6icu_7517TimeZoneNamesImpl6doFindERNS_18ZNameSearchHandlerERKNS_13UnicodeStringEiR10UErrorCode(ptr noundef nonnull align 8 dereferenceable(320) %this1, ptr noundef nonnull align 8 dereferenceable(24) %handler, ptr noundef nonnull align 8 dereferenceable(64) %1, i32 noundef %2, ptr noundef nonnull align 4 dereferenceable(4) %3)
          to label %invoke.cont3 unwind label %lpad2

invoke.cont3:                                     ; preds = %invoke.cont
  store ptr %call, ptr %matches, align 8
  %4 = load ptr, ptr %status.addr, align 8
  %5 = load i32, ptr %4, align 4
  %call5 = invoke noundef signext i8 @_ZL9U_FAILURE10UErrorCode(i32 noundef %5)
          to label %invoke.cont4 unwind label %lpad2

invoke.cont4:                                     ; preds = %invoke.cont3
  %tobool = icmp ne i8 %call5, 0
  br i1 %tobool, label %if.then, label %if.end

if.then:                                          ; preds = %invoke.cont4
  store ptr null, ptr %retval, align 8
  store i32 1, ptr %cleanup.dest.slot, align 4
  br label %cleanup

lpad:                                             ; preds = %entry
  %6 = landingpad { ptr, i32 }
          cleanup
  %7 = extractvalue { ptr, i32 } %6, 0
  store ptr %7, ptr %exn.slot, align 8
  %8 = extractvalue { ptr, i32 } %6, 1
  store i32 %8, ptr %ehselector.slot, align 4
  br label %ehcleanup

lpad2:                                            ; preds = %if.end25, %invoke.cont20, %invoke.cont19, %if.end18, %invoke.cont9, %invoke.cont8, %if.end7, %invoke.cont3, %invoke.cont
  %9 = landingpad { ptr, i32 }
          cleanup
  %10 = extractvalue { ptr, i32 } %9, 0
  store ptr %10, ptr %exn.slot, align 8
  %11 = extractvalue { ptr, i32 } %9, 1
  store i32 %11, ptr %ehselector.slot, align 4
  call void @_ZN6icu_755MutexD2Ev(ptr noundef nonnull align 8 dereferenceable(8) %lock) #10
  br label %ehcleanup

if.end:                                           ; preds = %invoke.cont4
  %12 = load ptr, ptr %matches, align 8
  %cmp = icmp ne ptr %12, null
  br i1 %cmp, label %if.then6, label %if.end7

if.then6:                                         ; preds = %if.end
  %13 = load ptr, ptr %matches, align 8
  store ptr %13, ptr %retval, align 8
  store i32 1, ptr %cleanup.dest.slot, align 4
  br label %cleanup

if.end7:                                          ; preds = %if.end
  %14 = load ptr, ptr %nonConstThis, align 8
  %15 = load ptr, ptr %status.addr, align 8
  invoke void @_ZN6icu_7517TimeZoneNamesImpl19addAllNamesIntoTrieER10UErrorCode(ptr noundef nonnull align 8 dereferenceable(320) %14, ptr noundef nonnull align 4 dereferenceable(4) %15)
          to label %invoke.cont8 unwind label %lpad2

invoke.cont8:                                     ; preds = %if.end7
  %16 = load ptr, ptr %text.addr, align 8
  %17 = load i32, ptr %start.addr, align 4
  %18 = load ptr, ptr %status.addr, align 8
  %call10 = invoke noundef ptr @_ZNK6icu_7517TimeZoneNamesImpl6doFindERNS_18ZNameSearchHandlerERKNS_13UnicodeStringEiR10UErrorCode(ptr noundef nonnull align 8 dereferenceable(320) %this1, ptr noundef nonnull align 8 dereferenceable(24) %handler, ptr noundef nonnull align 8 dereferenceable(64) %16, i32 noundef %17, ptr noundef nonnull align 4 dereferenceable(4) %18)
          to label %invoke.cont9 unwind label %lpad2

invoke.cont9:                                     ; preds = %invoke.cont8
  store ptr %call10, ptr %matches, align 8
  %19 = load ptr, ptr %status.addr, align 8
  %20 = load i32, ptr %19, align 4
  %call12 = invoke noundef signext i8 @_ZL9U_FAILURE10UErrorCode(i32 noundef %20)
          to label %invoke.cont11 unwind label %lpad2

invoke.cont11:                                    ; preds = %invoke.cont9
  %tobool13 = icmp ne i8 %call12, 0
  br i1 %tobool13, label %if.then14, label %if.end15

if.then14:                                        ; preds = %invoke.cont11
  store ptr null, ptr %retval, align 8
  store i32 1, ptr %cleanup.dest.slot, align 4
  br label %cleanup

if.end15:                                         ; preds = %invoke.cont11
  %21 = load ptr, ptr %matches, align 8
  %cmp16 = icmp ne ptr %21, null
  br i1 %cmp16, label %if.then17, label %if.end18

if.then17:                                        ; preds = %if.end15
  %22 = load ptr, ptr %matches, align 8
  store ptr %22, ptr %retval, align 8
  store i32 1, ptr %cleanup.dest.slot, align 4
  br label %cleanup

if.end18:                                         ; preds = %if.end15
  %23 = load ptr, ptr %nonConstThis, align 8
  %24 = load ptr, ptr %status.addr, align 8
  invoke void @_ZN6icu_7517TimeZoneNamesImpl27internalLoadAllDisplayNamesER10UErrorCode(ptr noundef nonnull align 8 dereferenceable(320) %23, ptr noundef nonnull align 4 dereferenceable(4) %24)
          to label %invoke.cont19 unwind label %lpad2

invoke.cont19:                                    ; preds = %if.end18
  %25 = load ptr, ptr %nonConstThis, align 8
  %26 = load ptr, ptr %status.addr, align 8
  invoke void @_ZN6icu_7517TimeZoneNamesImpl19addAllNamesIntoTrieER10UErrorCode(ptr noundef nonnull align 8 dereferenceable(320) %25, ptr noundef nonnull align 4 dereferenceable(4) %26)
          to label %invoke.cont20 unwind label %lpad2

invoke.cont20:                                    ; preds = %invoke.cont19
  %27 = load ptr, ptr %nonConstThis, align 8
  %fNamesTrieFullyLoaded = getelementptr inbounds %"class.icu_75::TimeZoneNamesImpl", ptr %27, i32 0, i32 5
  store i8 1, ptr %fNamesTrieFullyLoaded, align 8
  %28 = load ptr, ptr %status.addr, align 8
  %29 = load i32, ptr %28, align 4
  %call22 = invoke noundef signext i8 @_ZL9U_FAILURE10UErrorCode(i32 noundef %29)
          to label %invoke.cont21 unwind label %lpad2

invoke.cont21:                                    ; preds = %invoke.cont20
  %tobool23 = icmp ne i8 %call22, 0
  br i1 %tobool23, label %if.then24, label %if.end25

if.then24:                                        ; preds = %invoke.cont21
  store ptr null, ptr %retval, align 8
  store i32 1, ptr %cleanup.dest.slot, align 4
  br label %cleanup

if.end25:                                         ; preds = %invoke.cont21
  %30 = load ptr, ptr %text.addr, align 8
  %31 = load i32, ptr %start.addr, align 4
  %32 = load ptr, ptr %status.addr, align 8
  %call27 = invoke noundef ptr @_ZNK6icu_7517TimeZoneNamesImpl6doFindERNS_18ZNameSearchHandlerERKNS_13UnicodeStringEiR10UErrorCode(ptr noundef nonnull align 8 dereferenceable(320) %this1, ptr noundef nonnull align 8 dereferenceable(24) %handler, ptr noundef nonnull align 8 dereferenceable(64) %30, i32 noundef %31, ptr noundef nonnull align 4 dereferenceable(4) %32)
          to label %invoke.cont26 unwind label %lpad2

invoke.cont26:                                    ; preds = %if.end25
  store ptr %call27, ptr %retval, align 8
  store i32 1, ptr %cleanup.dest.slot, align 4
  br label %cleanup

cleanup:                                          ; preds = %invoke.cont26, %if.then24, %if.then17, %if.then14, %if.then6, %if.then
  call void @_ZN6icu_755MutexD2Ev(ptr noundef nonnull align 8 dereferenceable(8) %lock) #10
  call void @_ZN6icu_7518ZNameSearchHandlerD1Ev(ptr noundef nonnull align 8 dereferenceable(24) %handler) #10
  %33 = load ptr, ptr %retval, align 8
  ret ptr %33

ehcleanup:                                        ; preds = %lpad2, %lpad
  call void @_ZN6icu_7518ZNameSearchHandlerD1Ev(ptr noundef nonnull align 8 dereferenceable(24) %handler) #10
  br label %eh.resume

eh.resume:                                        ; preds = %ehcleanup
  %exn = load ptr, ptr %exn.slot, align 8
  %sel = load i32, ptr %ehselector.slot, align 4
  %lpad.val = insertvalue { ptr, i32 } poison, ptr %exn, 0
  %lpad.val29 = insertvalue { ptr, i32 } %lpad.val, i32 %sel, 1
  resume { ptr, i32 } %lpad.val29
}