; Function Attrs: mustprogress uwtable
define noundef ptr @_ZNK6icu_7517TimeZoneNamesImpl4findERKNS_13UnicodeStringEijR10UErrorCode(ptr noundef nonnull align 8 dereferenceable(320) %this, ptr noundef nonnull align 8 dereferenceable(64) %text, i32 noundef %start, i32 noundef %types, ptr noundef nonnull align 4 dereferenceable(4) %status) unnamed_addr #1 align 2 personality ptr @__gxx_personality_v0 {
entry:
  %handler = alloca %"class.icu_75::ZNameSearchHandler", align 8
  call void @_ZN6icu_7518ZNameSearchHandlerC1Ej(ptr noundef nonnull align 8 dereferenceable(24) %handler, i32 noundef %types)
  invoke void @umtx_lock_75(ptr noundef nonnull @_ZN6icu_75L10gDataMutexE)
          to label %invoke.cont unwind label %lpad

invoke.cont:                                      ; preds = %entry
  %fNamesTrie.i = getelementptr inbounds i8, ptr %this, i64 264
  invoke void @_ZNK6icu_7511TextTrieMap6searchERKNS_13UnicodeStringEiPNS_30TextTrieMapSearchResultHandlerER10UErrorCode(ptr noundef nonnull align 8 dereferenceable(56) %fNamesTrie.i, ptr noundef nonnull align 8 dereferenceable(64) %text, i32 noundef %start, ptr noundef nonnull %handler, ptr noundef nonnull align 4 dereferenceable(4) %status)
          to label %.noexc unwind label %lpad2

.noexc:                                           ; preds = %invoke.cont
  %0 = load i32, ptr %status, align 4
  %cmp.i.i = icmp slt i32 %0, 1
  br i1 %cmp.i.i, label %if.end.i, label %cleanup

if.end.i:                                         ; preds = %.noexc
  %fResults.i.i = getelementptr inbounds i8, ptr %handler, i64 16
  %1 = load ptr, ptr %fResults.i.i, align 8
  %fMaxMatchLen.i.i = getelementptr inbounds i8, ptr %handler, i64 12
  %2 = load i32, ptr %fMaxMatchLen.i.i, align 4
  store ptr null, ptr %fResults.i.i, align 8
  store i32 0, ptr %fMaxMatchLen.i.i, align 4
  %cond.i = icmp eq ptr %1, null
  br i1 %cond.i, label %if.end7, label %land.lhs.true.i

land.lhs.true.i:                                  ; preds = %if.end.i
  %fUnion.i.i.i = getelementptr inbounds i8, ptr %text, i64 8
  %3 = load i16, ptr %fUnion.i.i.i, align 8
  %cmp.i.i.i = icmp slt i16 %3, 0
  %4 = ashr i16 %3, 5
  %shr.i.i.i = sext i16 %4 to i32
  %fLength.i.i = getelementptr inbounds i8, ptr %text, i64 12
  %5 = load i32, ptr %fLength.i.i, align 4
  %cond.i.i = select i1 %cmp.i.i.i, i32 %5, i32 %shr.i.i.i
  %sub.i = sub nsw i32 %cond.i.i, %start
  %cmp4.i = icmp ne i32 %2, %sub.i
  %fNamesTrieFullyLoaded.i = getelementptr inbounds i8, ptr %this, i64 256
  %6 = load i8, ptr %fNamesTrieFullyLoaded.i, align 8
  %tobool5.not.i = icmp eq i8 %6, 0
  %or.cond.i = select i1 %cmp4.i, i1 %tobool5.not.i, i1 false
  br i1 %or.cond.i, label %invoke.cont3, label %cleanup

invoke.cont3:                                     ; preds = %land.lhs.true.i
  %vtable.i = load ptr, ptr %1, align 8
  %vfn.i = getelementptr inbounds i8, ptr %vtable.i, i64 8
  %7 = load ptr, ptr %vfn.i, align 8
  call void %7(ptr noundef nonnull align 8 dereferenceable(16) %1) #20
  %.pre = load i32, ptr %status, align 4
  %cmp.i = icmp slt i32 %.pre, 1
  br i1 %cmp.i, label %if.end7, label %cleanup

lpad:                                             ; preds = %entry
  %8 = landingpad { ptr, i32 }
          cleanup
  br label %ehcleanup

lpad2:                                            ; preds = %invoke.cont8, %invoke.cont, %if.end25, %invoke.cont19, %if.end18, %if.end7
  %9 = landingpad { ptr, i32 }
          cleanup
  invoke void @umtx_unlock_75(ptr noundef nonnull @_ZN6icu_75L10gDataMutexE)
          to label %ehcleanup unwind label %terminate.lpad.i

terminate.lpad.i:                                 ; preds = %lpad2
  %10 = landingpad { ptr, i32 }
          catch ptr null
  %11 = extractvalue { ptr, i32 } %10, 0
  call void @__clang_call_terminate(ptr %11) #22
  unreachable

if.end7:                                          ; preds = %invoke.cont3, %if.end.i
  invoke void @_ZN6icu_7517TimeZoneNamesImpl19addAllNamesIntoTrieER10UErrorCode(ptr noundef nonnull align 8 dereferenceable(320) %this, ptr noundef nonnull align 4 dereferenceable(4) %status)
          to label %invoke.cont8 unwind label %lpad2

invoke.cont8:                                     ; preds = %if.end7
  invoke void @_ZNK6icu_7511TextTrieMap6searchERKNS_13UnicodeStringEiPNS_30TextTrieMapSearchResultHandlerER10UErrorCode(ptr noundef nonnull align 8 dereferenceable(56) %fNamesTrie.i, ptr noundef nonnull align 8 dereferenceable(64) %text, i32 noundef %start, ptr noundef nonnull %handler, ptr noundef nonnull align 4 dereferenceable(4) %status)
          to label %.noexc41 unwind label %lpad2

.noexc41:                                         ; preds = %invoke.cont8
  %12 = load i32, ptr %status, align 4
  %cmp.i.i21 = icmp slt i32 %12, 1
  br i1 %cmp.i.i21, label %if.end.i23, label %cleanup

if.end.i23:                                       ; preds = %.noexc41
  %fResults.i.i24 = getelementptr inbounds i8, ptr %handler, i64 16
  %13 = load ptr, ptr %fResults.i.i24, align 8
  %fMaxMatchLen.i.i25 = getelementptr inbounds i8, ptr %handler, i64 12
  %14 = load i32, ptr %fMaxMatchLen.i.i25, align 4
  store ptr null, ptr %fResults.i.i24, align 8
  store i32 0, ptr %fMaxMatchLen.i.i25, align 4
  %cond.i26 = icmp eq ptr %13, null
  br i1 %cond.i26, label %if.end18, label %land.lhs.true.i27

land.lhs.true.i27:                                ; preds = %if.end.i23
  %fUnion.i.i.i28 = getelementptr inbounds i8, ptr %text, i64 8
  %15 = load i16, ptr %fUnion.i.i.i28, align 8
  %cmp.i.i.i29 = icmp slt i16 %15, 0
  %16 = ashr i16 %15, 5
  %shr.i.i.i30 = sext i16 %16 to i32
  %fLength.i.i31 = getelementptr inbounds i8, ptr %text, i64 12
  %17 = load i32, ptr %fLength.i.i31, align 4
  %cond.i.i32 = select i1 %cmp.i.i.i29, i32 %17, i32 %shr.i.i.i30
  %sub.i33 = sub nsw i32 %cond.i.i32, %start
  %cmp4.i34 = icmp ne i32 %14, %sub.i33
  %fNamesTrieFullyLoaded.i35 = getelementptr inbounds i8, ptr %this, i64 256
  %18 = load i8, ptr %fNamesTrieFullyLoaded.i35, align 8
  %tobool5.not.i36 = icmp eq i8 %18, 0
  %or.cond.i37 = select i1 %cmp4.i34, i1 %tobool5.not.i36, i1 false
  br i1 %or.cond.i37, label %invoke.cont9, label %cleanup

invoke.cont9:                                     ; preds = %land.lhs.true.i27
  %vtable.i39 = load ptr, ptr %13, align 8
  %vfn.i40 = getelementptr inbounds i8, ptr %vtable.i39, i64 8
  %19 = load ptr, ptr %vfn.i40, align 8
  call void %19(ptr noundef nonnull align 8 dereferenceable(16) %13) #20
  %.pre50 = load i32, ptr %status, align 4
  %cmp.i43 = icmp slt i32 %.pre50, 1
  br i1 %cmp.i43, label %if.end18, label %cleanup

if.end18:                                         ; preds = %invoke.cont9, %if.end.i23
  invoke void @_ZN6icu_7517TimeZoneNamesImpl27internalLoadAllDisplayNamesER10UErrorCode(ptr noundef nonnull align 8 dereferenceable(320) %this, ptr noundef nonnull align 4 dereferenceable(4) %status)
          to label %invoke.cont19 unwind label %lpad2

invoke.cont19:                                    ; preds = %if.end18
  invoke void @_ZN6icu_7517TimeZoneNamesImpl19addAllNamesIntoTrieER10UErrorCode(ptr noundef nonnull align 8 dereferenceable(320) %this, ptr noundef nonnull align 4 dereferenceable(4) %status)
          to label %invoke.cont20 unwind label %lpad2

invoke.cont20:                                    ; preds = %invoke.cont19
  %fNamesTrieFullyLoaded = getelementptr inbounds i8, ptr %this, i64 256
  store i8 1, ptr %fNamesTrieFullyLoaded, align 8
  %20 = load i32, ptr %status, align 4
  %cmp.i45 = icmp slt i32 %20, 1
  br i1 %cmp.i45, label %if.end25, label %cleanup

if.end25:                                         ; preds = %invoke.cont20
  %call27 = invoke noundef ptr @_ZNK6icu_7517TimeZoneNamesImpl6doFindERNS_18ZNameSearchHandlerERKNS_13UnicodeStringEiR10UErrorCode(ptr noundef nonnull align 8 dereferenceable(320) %this, ptr noundef nonnull align 8 dereferenceable(24) %handler, ptr noundef nonnull align 8 dereferenceable(64) %text, i32 noundef %start, ptr noundef nonnull align 4 dereferenceable(4) %status)
          to label %cleanup unwind label %lpad2

cleanup:                                          ; preds = %.noexc41, %.noexc, %land.lhs.true.i27, %land.lhs.true.i, %if.end25, %invoke.cont20, %invoke.cont9, %invoke.cont3
  %retval.0 = phi ptr [ null, %invoke.cont3 ], [ null, %invoke.cont9 ], [ null, %invoke.cont20 ], [ %call27, %if.end25 ], [ %1, %land.lhs.true.i ], [ %13, %land.lhs.true.i27 ], [ null, %.noexc ], [ null, %.noexc41 ]
  invoke void @umtx_unlock_75(ptr noundef nonnull @_ZN6icu_75L10gDataMutexE)
          to label %_ZN6icu_755MutexD2Ev.exit48 unwind label %terminate.lpad.i47

terminate.lpad.i47:                               ; preds = %cleanup
  %21 = landingpad { ptr, i32 }
          catch ptr null
  %22 = extractvalue { ptr, i32 } %21, 0
  call void @__clang_call_terminate(ptr %22) #22
  unreachable

_ZN6icu_755MutexD2Ev.exit48:                      ; preds = %cleanup
  call void @_ZN6icu_7518ZNameSearchHandlerD1Ev(ptr noundef nonnull align 8 dereferenceable(24) %handler) #20
  ret ptr %retval.0

ehcleanup:                                        ; preds = %lpad2, %lpad
  %.pn = phi { ptr, i32 } [ %8, %lpad ], [ %9, %lpad2 ]
  call void @_ZN6icu_7518ZNameSearchHandlerD1Ev(ptr noundef nonnull align 8 dereferenceable(24) %handler) #20
  resume { ptr, i32 } %.pn
}